target datalayout = "e-m:e-p270:32:32-p271:32:32-p272:64:64-i64:64-i128:128-f80:128-n8:16:32:64-S128"
target triple = "x86_64-unknown-linux-gnu"

%"class.cvc5::internal::Options" = type { %"class.std::unique_ptr.45", %"class.std::unique_ptr.53", %"class.std::unique_ptr.61", %"class.std::unique_ptr.69", %"class.std::unique_ptr.77", %"class.std::unique_ptr.85", %"class.std::unique_ptr.93", %"class.std::unique_ptr.101", %"class.std::unique_ptr.109", %"class.std::unique_ptr.117", %"class.std::unique_ptr.125", %"class.std::unique_ptr.133", %"class.std::unique_ptr.141", %"class.std::unique_ptr.149", %"class.std::unique_ptr.157", %"class.std::unique_ptr.165", %"class.std::unique_ptr.173", %"class.std::unique_ptr.181", %"class.std::unique_ptr.189", %"class.std::unique_ptr.197", %"class.std::unique_ptr.205", %"class.std::unique_ptr.213", %"class.std::unique_ptr.221", %"class.std::unique_ptr.229", ptr, ptr, ptr, ptr, ptr, ptr, ptr, ptr, ptr, ptr, ptr, ptr, ptr, ptr, ptr, ptr, ptr, ptr, ptr, ptr, ptr, ptr, ptr, ptr, %"class.std::unique_ptr.237" }
%"class.std::unique_ptr.45" = type { %"struct.std::__uniq_ptr_data.46" }
%"struct.std::__uniq_ptr_data.46" = type { %"class.std::__uniq_ptr_impl.47" }
%"class.std::__uniq_ptr_impl.47" = type { %"class.std::tuple.48" }
%"class.std::tuple.48" = type { %"struct.std::_Tuple_impl.49" }
%"struct.std::_Tuple_impl.49" = type { %"struct.std::_Head_base.52" }
%"struct.std::_Head_base.52" = type { ptr }
%"class.std::unique_ptr.53" = type { %"struct.std::__uniq_ptr_data.54" }
%"struct.std::__uniq_ptr_data.54" = type { %"class.std::__uniq_ptr_impl.55" }
%"class.std::__uniq_ptr_impl.55" = type { %"class.std::tuple.56" }
%"class.std::tuple.56" = type { %"struct.std::_Tuple_impl.57" }
%"struct.std::_Tuple_impl.57" = type { %"struct.std::_Head_base.60" }
%"struct.std::_Head_base.60" = type { ptr }
%"class.std::unique_ptr.61" = type { %"struct.std::__uniq_ptr_data.62" }
%"struct.std::__uniq_ptr_data.62" = type { %"class.std::__uniq_ptr_impl.63" }
%"class.std::__uniq_ptr_impl.63" = type { %"class.std::tuple.64" }
%"class.std::tuple.64" = type { %"struct.std::_Tuple_impl.65" }
%"struct.std::_Tuple_impl.65" = type { %"struct.std::_Head_base.68" }
%"struct.std::_Head_base.68" = type { ptr }
%"class.std::unique_ptr.69" = type { %"struct.std::__uniq_ptr_data.70" }
%"struct.std::__uniq_ptr_data.70" = type { %"class.std::__uniq_ptr_impl.71" }
%"class.std::__uniq_ptr_impl.71" = type { %"class.std::tuple.72" }
%"class.std::tuple.72" = type { %"struct.std::_Tuple_impl.73" }
%"struct.std::_Tuple_impl.73" = type { %"struct.std::_Head_base.76" }
%"struct.std::_Head_base.76" = type { ptr }
%"class.std::unique_ptr.77" = type { %"struct.std::__uniq_ptr_data.78" }
%"struct.std::__uniq_ptr_data.78" = type { %"class.std::__uniq_ptr_impl.79" }
%"class.std::__uniq_ptr_impl.79" = type { %"class.std::tuple.80" }
%"class.std::tuple.80" = type { %"struct.std::_Tuple_impl.81" }
%"struct.std::_Tuple_impl.81" = type { %"struct.std::_Head_base.84" }
%"struct.std::_Head_base.84" = type { ptr }
%"class.std::unique_ptr.85" = type { %"struct.std::__uniq_ptr_data.86" }
%"struct.std::__uniq_ptr_data.86" = type { %"class.std::__uniq_ptr_impl.87" }
%"class.std::__uniq_ptr_impl.87" = type { %"class.std::tuple.88" }
%"class.std::tuple.88" = type { %"struct.std::_Tuple_impl.89" }
%"struct.std::_Tuple_impl.89" = type { %"struct.std::_Head_base.92" }
%"struct.std::_Head_base.92" = type { ptr }
%"class.std::unique_ptr.93" = type { %"struct.std::__uniq_ptr_data.94" }
%"struct.std::__uniq_ptr_data.94" = type { %"class.std::__uniq_ptr_impl.95" }
%"class.std::__uniq_ptr_impl.95" = type { %"class.std::tuple.96" }
%"class.std::tuple.96" = type { %"struct.std::_Tuple_impl.97" }
%"struct.std::_Tuple_impl.97" = type { %"struct.std::_Head_base.100" }
%"struct.std::_Head_base.100" = type { ptr }
%"class.std::unique_ptr.101" = type { %"struct.std::__uniq_ptr_data.102" }
%"struct.std::__uniq_ptr_data.102" = type { %"class.std::__uniq_ptr_impl.103" }
%"class.std::__uniq_ptr_impl.103" = type { %"class.std::tuple.104" }
%"class.std::tuple.104" = type { %"struct.std::_Tuple_impl.105" }
%"struct.std::_Tuple_impl.105" = type { %"struct.std::_Head_base.108" }
%"struct.std::_Head_base.108" = type { ptr }
%"class.std::unique_ptr.109" = type { %"struct.std::__uniq_ptr_data.110" }
%"struct.std::__uniq_ptr_data.110" = type { %"class.std::__uniq_ptr_impl.111" }
%"class.std::__uniq_ptr_impl.111" = type { %"class.std::tuple.112" }
%"class.std::tuple.112" = type { %"struct.std::_Tuple_impl.113" }
%"struct.std::_Tuple_impl.113" = type { %"struct.std::_Head_base.116" }
%"struct.std::_Head_base.116" = type { ptr }
%"class.std::unique_ptr.117" = type { %"struct.std::__uniq_ptr_data.118" }
%"struct.std::__uniq_ptr_data.118" = type { %"class.std::__uniq_ptr_impl.119" }
%"class.std::__uniq_ptr_impl.119" = type { %"class.std::tuple.120" }
%"class.std::tuple.120" = type { %"struct.std::_Tuple_impl.121" }
%"struct.std::_Tuple_impl.121" = type { %"struct.std::_Head_base.124" }
%"struct.std::_Head_base.124" = type { ptr }
%"class.std::unique_ptr.125" = type { %"struct.std::__uniq_ptr_data.126" }
%"struct.std::__uniq_ptr_data.126" = type { %"class.std::__uniq_ptr_impl.127" }
%"class.std::__uniq_ptr_impl.127" = type { %"class.std::tuple.128" }
%"class.std::tuple.128" = type { %"struct.std::_Tuple_impl.129" }
%"struct.std::_Tuple_impl.129" = type { %"struct.std::_Head_base.132" }
%"struct.std::_Head_base.132" = type { ptr }
%"class.std::unique_ptr.133" = type { %"struct.std::__uniq_ptr_data.134" }
%"struct.std::__uniq_ptr_data.134" = type { %"class.std::__uniq_ptr_impl.135" }
%"class.std::__uniq_ptr_impl.135" = type { %"class.std::tuple.136" }
%"class.std::tuple.136" = type { %"struct.std::_Tuple_impl.137" }
%"struct.std::_Tuple_impl.137" = type { %"struct.std::_Head_base.140" }
%"struct.std::_Head_base.140" = type { ptr }
%"class.std::unique_ptr.141" = type { %"struct.std::__uniq_ptr_data.142" }
%"struct.std::__uniq_ptr_data.142" = type { %"class.std::__uniq_ptr_impl.143" }
%"class.std::__uniq_ptr_impl.143" = type { %"class.std::tuple.144" }
%"class.std::tuple.144" = type { %"struct.std::_Tuple_impl.145" }
%"struct.std::_Tuple_impl.145" = type { %"struct.std::_Head_base.148" }
%"struct.std::_Head_base.148" = type { ptr }
%"class.std::unique_ptr.149" = type { %"struct.std::__uniq_ptr_data.150" }
%"struct.std::__uniq_ptr_data.150" = type { %"class.std::__uniq_ptr_impl.151" }
%"class.std::__uniq_ptr_impl.151" = type { %"class.std::tuple.152" }
%"class.std::tuple.152" = type { %"struct.std::_Tuple_impl.153" }
%"struct.std::_Tuple_impl.153" = type { %"struct.std::_Head_base.156" }
%"struct.std::_Head_base.156" = type { ptr }
%"class.std::unique_ptr.157" = type { %"struct.std::__uniq_ptr_data.158" }
%"struct.std::__uniq_ptr_data.158" = type { %"class.std::__uniq_ptr_impl.159" }
%"class.std::__uniq_ptr_impl.159" = type { %"class.std::tuple.160" }
%"class.std::tuple.160" = type { %"struct.std::_Tuple_impl.161" }
%"struct.std::_Tuple_impl.161" = type { %"struct.std::_Head_base.164" }
%"struct.std::_Head_base.164" = type { ptr }
%"class.std::unique_ptr.165" = type { %"struct.std::__uniq_ptr_data.166" }
%"struct.std::__uniq_ptr_data.166" = type { %"class.std::__uniq_ptr_impl.167" }
%"class.std::__uniq_ptr_impl.167" = type { %"class.std::tuple.168" }
%"class.std::tuple.168" = type { %"struct.std::_Tuple_impl.169" }
%"struct.std::_Tuple_impl.169" = type { %"struct.std::_Head_base.172" }
%"struct.std::_Head_base.172" = type { ptr }
%"class.std::unique_ptr.173" = type { %"struct.std::__uniq_ptr_data.174" }
%"struct.std::__uniq_ptr_data.174" = type { %"class.std::__uniq_ptr_impl.175" }
%"class.std::__uniq_ptr_impl.175" = type { %"class.std::tuple.176" }
%"class.std::tuple.176" = type { %"struct.std::_Tuple_impl.177" }
%"struct.std::_Tuple_impl.177" = type { %"struct.std::_Head_base.180" }
%"struct.std::_Head_base.180" = type { ptr }
%"class.std::unique_ptr.181" = type { %"struct.std::__uniq_ptr_data.182" }
%"struct.std::__uniq_ptr_data.182" = type { %"class.std::__uniq_ptr_impl.183" }
%"class.std::__uniq_ptr_impl.183" = type { %"class.std::tuple.184" }
%"class.std::tuple.184" = type { %"struct.std::_Tuple_impl.185" }
%"struct.std::_Tuple_impl.185" = type { %"struct.std::_Head_base.188" }
%"struct.std::_Head_base.188" = type { ptr }
%"class.std::unique_ptr.189" = type { %"struct.std::__uniq_ptr_data.190" }
%"struct.std::__uniq_ptr_data.190" = type { %"class.std::__uniq_ptr_impl.191" }
%"class.std::__uniq_ptr_impl.191" = type { %"class.std::tuple.192" }
%"class.std::tuple.192" = type { %"struct.std::_Tuple_impl.193" }
%"struct.std::_Tuple_impl.193" = type { %"struct.std::_Head_base.196" }
%"struct.std::_Head_base.196" = type { ptr }
%"class.std::unique_ptr.197" = type { %"struct.std::__uniq_ptr_data.198" }
%"struct.std::__uniq_ptr_data.198" = type { %"class.std::__uniq_ptr_impl.199" }
%"class.std::__uniq_ptr_impl.199" = type { %"class.std::tuple.200" }
%"class.std::tuple.200" = type { %"struct.std::_Tuple_impl.201" }
%"struct.std::_Tuple_impl.201" = type { %"struct.std::_Head_base.204" }
%"struct.std::_Head_base.204" = type { ptr }
%"class.std::unique_ptr.205" = type { %"struct.std::__uniq_ptr_data.206" }
%"struct.std::__uniq_ptr_data.206" = type { %"class.std::__uniq_ptr_impl.207" }
%"class.std::__uniq_ptr_impl.207" = type { %"class.std::tuple.208" }
%"class.std::tuple.208" = type { %"struct.std::_Tuple_impl.209" }
%"struct.std::_Tuple_impl.209" = type { %"struct.std::_Head_base.212" }
%"struct.std::_Head_base.212" = type { ptr }
%"class.std::unique_ptr.213" = type { %"struct.std::__uniq_ptr_data.214" }
%"struct.std::__uniq_ptr_data.214" = type { %"class.std::__uniq_ptr_impl.215" }
%"class.std::__uniq_ptr_impl.215" = type { %"class.std::tuple.216" }
%"class.std::tuple.216" = type { %"struct.std::_Tuple_impl.217" }
%"struct.std::_Tuple_impl.217" = type { %"struct.std::_Head_base.220" }
%"struct.std::_Head_base.220" = type { ptr }
%"class.std::unique_ptr.221" = type { %"struct.std::__uniq_ptr_data.222" }
%"struct.std::__uniq_ptr_data.222" = type { %"class.std::__uniq_ptr_impl.223" }
%"class.std::__uniq_ptr_impl.223" = type { %"class.std::tuple.224" }
%"class.std::tuple.224" = type { %"struct.std::_Tuple_impl.225" }
%"struct.std::_Tuple_impl.225" = type { %"struct.std::_Head_base.228" }
%"struct.std::_Head_base.228" = type { ptr }
%"class.std::unique_ptr.229" = type { %"struct.std::__uniq_ptr_data.230" }
%"struct.std::__uniq_ptr_data.230" = type { %"class.std::__uniq_ptr_impl.231" }
%"class.std::__uniq_ptr_impl.231" = type { %"class.std::tuple.232" }
%"class.std::tuple.232" = type { %"struct.std::_Tuple_impl.233" }
%"struct.std::_Tuple_impl.233" = type { %"struct.std::_Head_base.236" }
%"struct.std::_Head_base.236" = type { ptr }
%"class.std::unique_ptr.237" = type { %"struct.std::__uniq_ptr_data.238" }
%"struct.std::__uniq_ptr_data.238" = type { %"class.std::__uniq_ptr_impl.239" }
%"class.std::__uniq_ptr_impl.239" = type { %"class.std::tuple.240" }
%"class.std::tuple.240" = type { %"struct.std::_Tuple_impl.241" }
%"struct.std::_Tuple_impl.241" = type { %"struct.std::_Head_base.244" }
%"struct.std::_Head_base.244" = type { ptr }
%"struct.cvc5::internal::options::HolderSMT" = type <{ i8, i8, i8, i8, i8, i8, [2 x i8], i64, i8, i8, i8, i8, i8, i8, i8, i8, i8, i8, i8, i8, i8, i8, i8, i8, i32, i8, [3 x i8], double, i8, [3 x i8], i32, i8, i8, i8, i8, i32, i8, i8, i8, i8, i32, i8, [3 x i8], i32, i8, i8, i8, i8, i8, i8, i8, i8, i32, i8, i8, i8, i8, i8, i8, i8, i8, i8, i8, i8, i8, i8, i8, i8, i8, i8, i8, i8, i8, i8, i8, i8, i8, i8, i8, i8, i8, i32, i8, i8, i8, i8, i8, i8, i8, i8, i32, i8, i8, i8, i8, i32, i8, [7 x i8], i64, i8, i8, i8, i8, i8, i8, i8, i8, i64, i8, i8, i8, i8, i32, i8, [7 x i8] }>
%"struct.cvc5::internal::options::HolderQUANTIFIERS" = type <{ i8, i8, i8, i8, i8, i8, i8, i8, i32, i8, i8, i8, i8, i8, i8, i8, i8, i32, i8, i8, i8, i8, i8, i8, i8, i8, i8, [3 x i8], i32, i8, i8, i8, i8, i8, i8, i8, i8, i8, i8, i8, i8, i8, i8, i8, i8, i8, i8, i8, i8, i8, i8, i8, i8, i8, i8, i8, i8, i8, [3 x i8], i32, i8, i8, i8, i8, i64, i8, [7 x i8], i64, i8, [7 x i8], i64, i8, i8, i8, i8, i8, i8, i8, i8, i8, i8, i8, i8, i8, i8, i8, i8, i64, i8, i8, i8, i8, i8, i8, i8, i8, i8, i8, i8, i8, i8, i8, i8, i8, i8, i8, i8, i8, i8, [3 x i8], i32, i8, [3 x i8], i64, i8, i8, i8, i8, i8, i8, i8, i8, i8, i8, i8, i8, i8, [3 x i8], i32, i8, i8, i8, i8, i64, i8, [7 x i8], i64, i8, i8, i8, i8, i32, i8, [7 x i8], i64, i8, i8, i8, i8, i8, [3 x i8], i32, i8, [3 x i8], i32, i8, i8, i8, i8, i32, i8, i8, i8, i8, i8, i8, i8, i8, i32, i8, i8, i8, i8, i8, i8, i8, i8, i8, i8, i8, i8, i8, i8, i8, i8, i32, i8, i8, i8, i8, i32, i8, i8, i8, i8, i32, i8, i8, i8, i8, i8, i8, i8, i8, i32, i8, i8, i8, i8, i8, [3 x i8], i32, i8, i8, i8, i8, i8, i8, i8, i8, i8, i8, i8, i8, i8, i8, i8, i8, i8, i8, i8, i8, i8, [3 x i8], i32, i8, [7 x i8], i64, i8, [7 x i8], double, i8, [3 x i8], i32, i8, [7 x i8], i64, i8, [3 x i8], i32, i8, i8, i8, i8, i32, i8, i8, i8, i8, i8, i8, i8, i8, i8, [3 x i8], i32, i8, [3 x i8], i32, i8, [3 x i8], i32, i8, [3 x i8], i32, i8, i8, i8, i8, i8, [3 x i8], i32, i8, i8, i8, i8, i8, [7 x i8], i64, i8, i8, i8, i8, i32, i8, [3 x i8], i32, i8, i8, i8, [5 x i8], i64, i8, i8, i8, [5 x i8], i64, i8, i8, i8, [5 x i8], i64, i8, i8, i8, i8, i8, i8, i8, i8, i8, i8, i8, i8, i8, [3 x i8], i64, i8, i8, i8, i8, i8, i8, i8, i8, i64, i8, [3 x i8], i32, i8, i8, i8, i8, i32, i8, [7 x i8], i64, i8, [7 x i8], double, i8, i8, i8, i8, i8, [3 x i8], i32, i8, i8, i8, i8, i64, i8, [7 x i8], i64, i8, i8, i8, i8, i32, i8, [3 x i8], i32, i8, [3 x i8], i32, i8, [3 x i8], i32, i8, [3 x i8], i32, i8, i8, i8, i8, i8, [3 x i8] }>
%"struct.cvc5::internal::options::HolderARRAYS" = type <{ i8, i8, i8, i8, i8, i8, i8, i8, i64, i8, i8, i8, i8, i8, [3 x i8] }>
%"struct.cvc5::internal::options::HolderPROP" = type <{ i8, i8, [2 x i8], i32, i8, [3 x i8], i32, i8, [7 x i8], double, i8, [7 x i8], i64, i8, [7 x i8], double, i8, [7 x i8], i64, i8, [3 x i8], i32, i8, [7 x i8], double, i8, [7 x i8], double, i8, [7 x i8] }>

@.str.119 = private unnamed_addr constant [14 x i8] c"global-negate\00", align 1
@.str.127 = private unnamed_addr constant [19 x i8] c"unconstrained-simp\00", align 1
@.str.128 = private unnamed_addr constant [15 x i8] c"sort-inference\00", align 1
@.str.129 = private unnamed_addr constant [23 x i8] c"minisat-simplification\00", align 1
@.str.130 = private unnamed_addr constant [18 x i8] c"arrays-weak-equiv\00", align 1

; Function Attrs: mustprogress uwtable
define hidden noundef zeroext i1 @_ZNK4cvc58internal3smt11SetDefaults22incompatibleWithModelsERKNS0_7OptionsERSo(ptr noundef nonnull align 8 dereferenceable(17) %this, ptr noundef nonnull align 8 dereferenceable(392) %opts, ptr noundef nonnull align 8 dereferenceable(8) %reason) #4 align 2 {
entry:
  %retval = alloca i1, align 1
  %this.addr = alloca ptr, align 8
  %opts.addr = alloca ptr, align 8
  %reason.addr = alloca ptr, align 8
  store ptr %this, ptr %this.addr, align 8
  store ptr %opts, ptr %opts.addr, align 8
  store ptr %reason, ptr %reason.addr, align 8
  %0 = load ptr, ptr %opts.addr, align 8
  %smt = getelementptr inbounds %"class.cvc5::internal::Options", ptr %0, i32 0, i32 44
  %1 = load ptr, ptr %smt, align 8
  %unconstrainedSimpWasSetByUser = getelementptr inbounds %"struct.cvc5::internal::options::HolderSMT", ptr %1, i32 0, i32 110
  %2 = load i8, ptr %unconstrainedSimpWasSetByUser, align 2
  %tobool = trunc i8 %2 to i1
  br i1 %tobool, label %land.lhs.true, label %if.else

land.lhs.true:                                    ; preds = %entry
  %3 = load ptr, ptr %opts.addr, align 8
  %smt2 = getelementptr inbounds %"class.cvc5::internal::Options", ptr %3, i32 0, i32 44
  %4 = load ptr, ptr %smt2, align 8
  %unconstrainedSimp = getelementptr inbounds %"struct.cvc5::internal::options::HolderSMT", ptr %4, i32 0, i32 109
  %5 = load i8, ptr %unconstrainedSimp, align 1
  %tobool3 = trunc i8 %5 to i1
  br i1 %tobool3, label %if.then, label %if.else

if.then:                                          ; preds = %land.lhs.true
  %6 = load ptr, ptr %reason.addr, align 8
  %call = call noundef nonnull align 8 dereferenceable(8) ptr @_ZStlsISt11char_traitsIcEERSt13basic_ostreamIcT_ES5_PKc(ptr noundef nonnull align 8 dereferenceable(8) %6, ptr noundef @.str.127)
  store i1 true, ptr %retval, align 1
  br label %return

if.else:                                          ; preds = %land.lhs.true, %entry
  %7 = load ptr, ptr %opts.addr, align 8
  %smt4 = getelementptr inbounds %"class.cvc5::internal::Options", ptr %7, i32 0, i32 44
  %8 = load ptr, ptr %smt4, align 8
  %sortInference = getelementptr inbounds %"struct.cvc5::internal::options::HolderSMT", ptr %8, i32 0, i32 102
  %9 = load i8, ptr %sortInference, align 1
  %tobool5 = trunc i8 %9 to i1
  br i1 %tobool5, label %if.then6, label %if.else8

if.then6:                                         ; preds = %if.else
  %10 = load ptr, ptr %reason.addr, align 8
  %call7 = call noundef nonnull align 8 dereferenceable(8) ptr @_ZStlsISt11char_traitsIcEERSt13basic_ostreamIcT_ES5_PKc(ptr noundef nonnull align 8 dereferenceable(8) %10, ptr noundef @.str.128)
  store i1 true, ptr %retval, align 1
  br label %return

if.else8:                                         ; preds = %if.else
  %11 = load ptr, ptr %opts.addr, align 8
  %prop = getelementptr inbounds %"class.cvc5::internal::Options", ptr %11, i32 0, i32 40
  %12 = load ptr, ptr %prop, align 8
  %minisatSimpMode = getelementptr inbounds %"struct.cvc5::internal::options::HolderPROP", ptr %12, i32 0, i32 3
  %13 = load i32, ptr %minisatSimpMode, align 4
  %cmp = icmp eq i32 %13, 0
  br i1 %cmp, label %if.then9, label %if.else11

if.then9:                                         ; preds = %if.else8
  %14 = load ptr, ptr %reason.addr, align 8
  %call10 = call noundef nonnull align 8 dereferenceable(8) ptr @_ZStlsISt11char_traitsIcEERSt13basic_ostreamIcT_ES5_PKc(ptr noundef nonnull align 8 dereferenceable(8) %14, ptr noundef @.str.129)
  store i1 true, ptr %retval, align 1
  br label %return

if.else11:                                        ; preds = %if.else8
  %15 = load ptr, ptr %opts.addr, align 8
  %quantifiers = getelementptr inbounds %"class.cvc5::internal::Options", ptr %15, i32 0, i32 41
  %16 = load ptr, ptr %quantifiers, align 8
  %globalNegate = getelementptr inbounds %"struct.cvc5::internal::options::HolderQUANTIFIERS", ptr %16, i32 0, i32 117
  %17 = load i8, ptr %globalNegate, align 1
  %tobool12 = trunc i8 %17 to i1
  br i1 %tobool12, label %if.then13, label %if.else15

if.then13:                                        ; preds = %if.else11
  %18 = load ptr, ptr %reason.addr, align 8
  %call14 = call noundef nonnull align 8 dereferenceable(8) ptr @_ZStlsISt11char_traitsIcEERSt13basic_ostreamIcT_ES5_PKc(ptr noundef nonnull align 8 dereferenceable(8) %18, ptr noundef @.str.119)
  store i1 true, ptr %retval, align 1
  br label %return

if.else15:                                        ; preds = %if.else11
  %19 = load ptr, ptr %opts.addr, align 8
  %arrays = getelementptr inbounds %"class.cvc5::internal::Options", ptr %19, i32 0, i32 25
  %20 = load ptr, ptr %arrays, align 8
  %arraysWeakEquivalence = getelementptr inbounds %"struct.cvc5::internal::options::HolderARRAYS", ptr %20, i32 0, i32 12
  %21 = load i8, ptr %arraysWeakEquivalence, align 1
  %tobool16 = trunc i8 %21 to i1
  br i1 %tobool16, label %if.then17, label %if.end

if.then17:                                        ; preds = %if.else15
  %22 = load ptr, ptr %reason.addr, align 8
  %call18 = call noundef nonnull align 8 dereferenceable(8) ptr @_ZStlsISt11char_traitsIcEERSt13basic_ostreamIcT_ES5_PKc(ptr noundef nonnull align 8 dereferenceable(8) %22, ptr noundef @.str.130)
  store i1 true, ptr %retval, align 1
  br label %return

if.end:                                           ; preds = %if.else15
  br label %if.end19

if.end19:                                         ; preds = %if.end
  br label %if.end20

if.end20:                                         ; preds = %if.end19
  br label %if.end21

if.end21:                                         ; preds = %if.end20
  br label %if.end22

if.end22:                                         ; preds = %if.end21
  store i1 false, ptr %retval, align 1
  br label %return

return:                                           ; preds = %if.end22, %if.then17, %if.then13, %if.then9, %if.then6, %if.then
  %23 = load i1, ptr %retval, align 1
  ret i1 %23
}