; Function Attrs: mustprogress uwtable
define hidden noundef zeroext i1 @_ZNK4cvc58internal3smt11SetDefaults22incompatibleWithModelsERKNS0_7OptionsERSo(ptr nocapture noundef nonnull readnone align 8 dereferenceable(17) %this, ptr nocapture noundef nonnull readonly align 8 dereferenceable(392) %opts, ptr noundef nonnull align 8 dereferenceable(8) %reason) local_unnamed_addr #3 align 2 {
entry:
  %smt = getelementptr inbounds i8, ptr %opts, i64 352
  %0 = load ptr, ptr %smt, align 8
  %unconstrainedSimpWasSetByUser = getelementptr inbounds i8, ptr %0, i64 178
  %1 = load i8, ptr %unconstrainedSimpWasSetByUser, align 2
  %2 = and i8 %1, 1
  %tobool.not = icmp eq i8 %2, 0
  br i1 %tobool.not, label %if.else, label %land.lhs.true

land.lhs.true:                                    ; preds = %entry
  %unconstrainedSimp = getelementptr inbounds i8, ptr %0, i64 177
  %3 = load i8, ptr %unconstrainedSimp, align 1
  %4 = and i8 %3, 1
  %tobool3.not = icmp eq i8 %4, 0
  br i1 %tobool3.not, label %if.else, label %return.sink.split

if.else:                                          ; preds = %land.lhs.true, %entry
  %sortInference = getelementptr inbounds i8, ptr %0, i64 163
  %5 = load i8, ptr %sortInference, align 1
  %6 = and i8 %5, 1
  %tobool5.not = icmp eq i8 %6, 0
  br i1 %tobool5.not, label %if.else8, label %return.sink.split

if.else8:                                         ; preds = %if.else
  %prop = getelementptr inbounds i8, ptr %opts, i64 320
  %7 = load ptr, ptr %prop, align 8
  %minisatSimpMode = getelementptr inbounds i8, ptr %7, i64 4
  %8 = load i32, ptr %minisatSimpMode, align 4
  %cmp = icmp eq i32 %8, 0
  br i1 %cmp, label %return.sink.split, label %if.else11

if.else11:                                        ; preds = %if.else8
  %quantifiers = getelementptr inbounds i8, ptr %opts, i64 328
  %9 = load ptr, ptr %quantifiers, align 8
  %globalNegate = getelementptr inbounds i8, ptr %9, i64 187
  %10 = load i8, ptr %globalNegate, align 1
  %11 = and i8 %10, 1
  %tobool12.not = icmp eq i8 %11, 0
  br i1 %tobool12.not, label %if.else15, label %return.sink.split

if.else15:                                        ; preds = %if.else11
  %arrays = getelementptr inbounds i8, ptr %opts, i64 200
  %12 = load ptr, ptr %arrays, align 8
  %arraysWeakEquivalence = getelementptr inbounds i8, ptr %12, i64 19
  %13 = load i8, ptr %arraysWeakEquivalence, align 1
  %14 = and i8 %13, 1
  %tobool16.not = icmp eq i8 %14, 0
  br i1 %tobool16.not, label %return, label %return.sink.split

return.sink.split:                                ; preds = %if.else15, %if.else11, %if.else8, %if.else, %land.lhs.true
  %.str.130.sink = phi ptr [ @.str.127, %land.lhs.true ], [ @.str.128, %if.else ], [ @.str.129, %if.else8 ], [ @.str.119, %if.else11 ], [ @.str.130, %if.else15 ]
  %call18 = tail call noundef nonnull align 8 dereferenceable(8) ptr @_ZStlsISt11char_traitsIcEERSt13basic_ostreamIcT_ES5_PKc(ptr noundef nonnull align 8 dereferenceable(8) %reason, ptr noundef nonnull %.str.130.sink)
  br label %return

return:                                           ; preds = %return.sink.split, %if.else15
  %retval.0 = phi i1 [ false, %if.else15 ], [ true, %return.sink.split ]
  ret i1 %retval.0
}